; Function Attrs: mustprogress uwtable
define hidden void @_ZN4nori4Mesh8activateEv(ptr nocapture noundef nonnull align 8 dereferenceable(176) %0) unnamed_addr #5 align 2 personality ptr @__gxx_personality_v0 {
  %2 = alloca %"class.std::__cxx11::basic_string", align 8
  %3 = alloca %"class.std::allocator", align 1
  %4 = alloca %"class.nori::PropertyList", align 8
  %5 = getelementptr inbounds i8, ptr %0, i64 136
  %6 = load ptr, ptr %5, align 8
  %.not = icmp eq ptr %6, null
  br i1 %.not, label %7, label %26

7:                                                ; preds = %1
  call void @_ZNSaIcEC1Ev(ptr noundef nonnull align 1 dereferenceable(1) %3) #21
  %8 = invoke noundef ptr @_ZNSt7__cxx1112basic_stringIcSt11char_traitsIcESaIcEE13_M_local_dataEv(ptr noundef nonnull align 8 dereferenceable(32) %2)
          to label %.noexc unwind label %22

.noexc:                                           ; preds = %7
  invoke void @_ZNSt7__cxx1112basic_stringIcSt11char_traitsIcESaIcEE12_Alloc_hiderC1EPcRKS3_(ptr noundef nonnull align 8 dereferenceable(8) %2, ptr noundef %8, ptr noundef nonnull align 1 dereferenceable(1) %3)
          to label %.noexc4 unwind label %22

.noexc4:                                          ; preds = %.noexc
  invoke void @_ZNSt7__cxx1112basic_stringIcSt11char_traitsIcESaIcEE12_M_constructIPKcEEvT_S8_St20forward_iterator_tag(ptr noundef nonnull align 8 dereferenceable(32) %2, ptr noundef nonnull @.str, ptr noundef nonnull getelementptr inbounds ([8 x i8], ptr @.str, i64 0, i64 7))
          to label %_ZNSt7__cxx1112basic_stringIcSt11char_traitsIcESaIcEEC2IS3_EEPKcRKS3_.exit unwind label %9

9:                                                ; preds = %.noexc4
  %10 = landingpad { ptr, i32 }
          cleanup
  call void @_ZNSaIcED2Ev(ptr noundef nonnull align 1 dereferenceable(1) %2) #21
  br label %.body

_ZNSt7__cxx1112basic_stringIcSt11char_traitsIcESaIcEEC2IS3_EEPKcRKS3_.exit: ; preds = %.noexc4
  %11 = getelementptr inbounds i8, ptr %4, i64 8
  store i32 0, ptr %11, align 8
  %12 = getelementptr inbounds i8, ptr %4, i64 16
  store ptr null, ptr %12, align 8
  %13 = getelementptr inbounds i8, ptr %4, i64 24
  store ptr %11, ptr %13, align 8
  %14 = getelementptr inbounds i8, ptr %4, i64 32
  store ptr %11, ptr %14, align 8
  %15 = getelementptr inbounds i8, ptr %4, i64 40
  store i64 0, ptr %15, align 8
  %16 = invoke noundef ptr @_ZN4nori17NoriObjectFactory14createInstanceERKNSt7__cxx1112basic_stringIcSt11char_traitsIcESaIcEEERKNS_12PropertyListE(ptr noundef nonnull align 8 dereferenceable(32) %2, ptr noundef nonnull align 8 dereferenceable(48) %4)
          to label %17 unwind label %24

17:                                               ; preds = %_ZNSt7__cxx1112basic_stringIcSt11char_traitsIcESaIcEEC2IS3_EEPKcRKS3_.exit
  store ptr %16, ptr %5, align 8
  %18 = load ptr, ptr %12, align 8
  invoke void @_ZNSt8_Rb_treeINSt7__cxx1112basic_stringIcSt11char_traitsIcESaIcEEESt4pairIKS5_N4nori12PropertyList8PropertyEESt10_Select1stISB_ESt4lessIS5_ESaISB_EE8_M_eraseEPSt13_Rb_tree_nodeISB_E(ptr noundef nonnull align 8 dereferenceable(48) %4, ptr noundef %18)
          to label %_ZN4nori12PropertyListD2Ev.exit unwind label %19

19:                                               ; preds = %17
  %20 = landingpad { ptr, i32 }
          catch ptr null
  %21 = extractvalue { ptr, i32 } %20, 0
  call void @__clang_call_terminate(ptr %21) #23
  unreachable

_ZN4nori12PropertyListD2Ev.exit:                  ; preds = %17
  call void @_ZNSt7__cxx1112basic_stringIcSt11char_traitsIcESaIcEED1Ev(ptr noundef nonnull align 8 dereferenceable(32) %2) #21
  call void @_ZNSaIcED1Ev(ptr noundef nonnull align 1 dereferenceable(1) %3) #21
  br label %26

22:                                               ; preds = %.noexc, %7
  %23 = landingpad { ptr, i32 }
          cleanup
  br label %.body

24:                                               ; preds = %_ZNSt7__cxx1112basic_stringIcSt11char_traitsIcESaIcEEC2IS3_EEPKcRKS3_.exit
  %25 = landingpad { ptr, i32 }
          cleanup
  call void @_ZN4nori12PropertyListD2Ev(ptr noundef nonnull align 8 dereferenceable(48) %4) #21
  call void @_ZNSt7__cxx1112basic_stringIcSt11char_traitsIcESaIcEED1Ev(ptr noundef nonnull align 8 dereferenceable(32) %2) #21
  br label %.body

.body:                                            ; preds = %22, %9, %24
  %.pn = phi { ptr, i32 } [ %25, %24 ], [ %23, %22 ], [ %10, %9 ]
  call void @_ZNSaIcED1Ev(ptr noundef nonnull align 1 dereferenceable(1) %3) #21
  resume { ptr, i32 } %.pn

26:                                               ; preds = %_ZN4nori12PropertyListD2Ev.exit, %1
  ret void
}